target datalayout = "e-m:e-p270:32:32-p271:32:32-p272:64:64-i64:64-i128:128-f80:128-n8:16:32:64-S128"
target triple = "x86_64-unknown-linux-gnu"

%struct.MemoryRegion = type { %struct.Object, i8, i8, i8, i8, i8, i8, i8, i8, i8, i8, ptr, ptr, ptr, ptr, ptr, ptr, i32, i128, i64, ptr, i64, i8, i8, i8, i8, i8, ptr, i64, i32, %union.anon, %union.anon.0, %union.anon.1, ptr, i32, ptr, ptr, i8 }
%struct.Object = type { ptr, ptr, ptr, i32, ptr }
%union.anon = type { %struct.QTailQLink }
%struct.QTailQLink = type { ptr, ptr }
%union.anon.0 = type { %struct.QTailQLink }
%union.anon.1 = type { %struct.QTailQLink }
%struct.VFIOPCIDevice = type { %struct.PCIDevice, %struct.VFIODevice, %struct.VFIOINTx, i32, ptr, i64, i32, i64, ptr, i32, ptr, ptr, i32, i32, [6 x %struct.VFIOBAR], ptr, ptr, %struct.PCIHostDeviceAddress, %struct.QemuUUID, %struct.EventNotifier, %struct.EventNotifier, ptr, i32, i32, i32, i32, i32, i32, i32, i32, i32, i32, i32, i8, i8, i8, i8, i8, i8, i8, i8, i8, i8, i8, i8, i8, i8, i32, i8, i8, ptr, %struct.Notifier }
%struct.PCIDevice = type { %struct.DeviceState, i8, i8, ptr, ptr, ptr, ptr, ptr, i32, %struct.PCIReqIDCache, [64 x i8], [7 x %struct.PCIIORegion], %struct.AddressSpace, %struct.MemoryRegion, %struct.MemoryRegion, ptr, ptr, [3 x ptr], i8, i8, i32, i8, i32, ptr, ptr, ptr, ptr, ptr, ptr, %struct.MemoryRegion, %struct.MemoryRegion, %struct.MemoryRegion, ptr, i8, i32, i8, %struct.PCIExpressDevice, ptr, ptr, i32, i8, %struct.MemoryRegion, i32, ptr, ptr, ptr, ptr, ptr, i32 }
%struct.DeviceState = type { %struct.Object, ptr, ptr, i8, i8, i64, ptr, i32, i8, ptr, %struct.NamedGPIOListHead, %struct.NamedClockListHead, %struct.BusStateHead, i32, i32, i32, %struct.ResettableState, ptr, %struct.MemReentrancyGuard }
%struct.NamedGPIOListHead = type { ptr }
%struct.NamedClockListHead = type { ptr }
%struct.BusStateHead = type { ptr }
%struct.ResettableState = type { i32, i8, i8 }
%struct.MemReentrancyGuard = type { i8 }
%struct.PCIReqIDCache = type { ptr, i32 }
%struct.PCIIORegion = type { i64, i64, i8, ptr, ptr }
%struct.AddressSpace = type { %struct.rcu_head, ptr, ptr, ptr, i32, i32, ptr, %union.anon.4, %union.anon.5 }
%struct.rcu_head = type { ptr, ptr }
%union.anon.4 = type { %struct.QTailQLink }
%union.anon.5 = type { %struct.QTailQLink }
%struct.PCIExpressDevice = type { i8, i8, i8, i16, %struct.PCIEAERLog, i16, i16, i16, %struct.PCIESriovPF, %struct.PCIESriovVF }
%struct.PCIEAERLog = type { i16, i16, ptr }
%struct.PCIESriovPF = type { i16, [7 x i8], ptr, ptr }
%struct.PCIESriovVF = type { ptr, i16 }
%struct.VFIODevice = type { %struct.anon.6, %struct.anon.7, %struct.anon.8, ptr, ptr, ptr, ptr, ptr, i32, i32, i8, i8, i8, i8, i32, ptr, i32, i32, i32, ptr, ptr, i32, i8, i8 }
%struct.anon.6 = type { ptr, ptr }
%struct.anon.7 = type { ptr, ptr }
%struct.anon.8 = type { ptr, ptr }
%struct.VFIOINTx = type { i8, i8, i8, %struct.EventNotifier, %struct.EventNotifier, %struct.PCIINTxRoute, i32, ptr }
%struct.PCIINTxRoute = type { i32, i32 }
%struct.VFIOBAR = type { %struct.VFIORegion, ptr, i64, i8, i8, i8, %struct.anon.9 }
%struct.VFIORegion = type { ptr, i64, ptr, i64, i32, i32, ptr, i8 }
%struct.anon.9 = type { ptr }
%struct.PCIHostDeviceAddress = type { i32, i32, i32, i32 }
%struct.QemuUUID = type { %union.anon.10 }
%union.anon.10 = type { %struct.anon.11 }
%struct.anon.11 = type { i32, i16, i16, i8, i8, [6 x i8] }
%struct.EventNotifier = type { i32, i32, i8 }
%struct.Notifier = type { ptr, %struct.anon.12 }
%struct.anon.12 = type { ptr, ptr }
%struct.VFIOMmap = type { %struct.MemoryRegion, ptr, i64, i64 }

@.str.22 = private unnamed_addr constant [9 x i8] c"vfio-pci\00", align 1
@.str.23 = private unnamed_addr constant [22 x i8] c"../qemu/hw/vfio/pci.h\00", align 1
@__func__.VFIO_PCI = private unnamed_addr constant [9 x i8] c"VFIO_PCI\00", align 1

; Function Attrs: nounwind sspstrong uwtable
define internal i64 @qemu_real_host_page_size() #0 {
entry:
  %call = call i32 @getpagesize() #14
  %conv = sext i32 %call to i64
  ret i64 %conv
}

; Function Attrs: nounwind sspstrong uwtable
define internal i64 @qemu_real_host_page_mask() #0 {
entry:
  %call = call i64 @qemu_real_host_page_size()
  %sub = sub i64 0, %call
  ret i64 %sub
}

; Function Attrs: nounwind sspstrong uwtable
define internal ptr @VFIO_PCI(ptr noundef %obj) #0 {
entry:
  %obj.addr = alloca ptr, align 8
  store ptr %obj, ptr %obj.addr, align 8
  %0 = load ptr, ptr %obj.addr, align 8
  %call = call ptr @object_dynamic_cast_assert(ptr noundef %0, ptr noundef @.str.22, ptr noundef @.str.23, i32 noundef 120, ptr noundef @__func__.VFIO_PCI)
  ret ptr %call
}

; Function Attrs: nounwind sspstrong uwtable
define internal void @vfio_sub_page_bar_update_mapping(ptr noundef %pdev, i32 noundef %bar) #0 {
entry:
  %pdev.addr = alloca ptr, align 8
  %bar.addr = alloca i32, align 4
  %vdev = alloca ptr, align 8
  %region = alloca ptr, align 8
  %mmap_mr = alloca ptr, align 8
  %region_mr = alloca ptr, align 8
  %base_mr = alloca ptr, align 8
  %r = alloca ptr, align 8
  %bar_addr = alloca i64, align 8
  %size = alloca i64, align 8
  store ptr %pdev, ptr %pdev.addr, align 8
  store i32 %bar, ptr %bar.addr, align 4
  %0 = load ptr, ptr %pdev.addr, align 8
  %call = call ptr @VFIO_PCI(ptr noundef %0)
  store ptr %call, ptr %vdev, align 8
  %1 = load ptr, ptr %vdev, align 8
  %bars = getelementptr inbounds %struct.VFIOPCIDevice, ptr %1, i32 0, i32 14
  %2 = load i32, ptr %bar.addr, align 4
  %idxprom = sext i32 %2 to i64
  %arrayidx = getelementptr [6 x %struct.VFIOBAR], ptr %bars, i64 0, i64 %idxprom
  %region1 = getelementptr inbounds %struct.VFIOBAR, ptr %arrayidx, i32 0, i32 0
  store ptr %region1, ptr %region, align 8
  %3 = load ptr, ptr %region, align 8
  %size2 = getelementptr inbounds %struct.VFIORegion, ptr %3, i32 0, i32 3
  %4 = load i64, ptr %size2, align 8
  store i64 %4, ptr %size, align 8
  %5 = load ptr, ptr %region, align 8
  %nr_mmaps = getelementptr inbounds %struct.VFIORegion, ptr %5, i32 0, i32 5
  %6 = load i32, ptr %nr_mmaps, align 4
  %cmp = icmp ne i32 %6, 1
  br i1 %cmp, label %if.then, label %lor.lhs.false

lor.lhs.false:                                    ; preds = %entry
  %7 = load ptr, ptr %region, align 8
  %mmaps = getelementptr inbounds %struct.VFIORegion, ptr %7, i32 0, i32 6
  %8 = load ptr, ptr %mmaps, align 8
  %arrayidx3 = getelementptr %struct.VFIOMmap, ptr %8, i64 0
  %mmap = getelementptr inbounds %struct.VFIOMmap, ptr %arrayidx3, i32 0, i32 1
  %9 = load ptr, ptr %mmap, align 16
  %tobool = icmp ne ptr %9, null
  br i1 %tobool, label %lor.lhs.false4, label %if.then

lor.lhs.false4:                                   ; preds = %lor.lhs.false
  %10 = load ptr, ptr %region, align 8
  %mmaps5 = getelementptr inbounds %struct.VFIORegion, ptr %10, i32 0, i32 6
  %11 = load ptr, ptr %mmaps5, align 8
  %arrayidx6 = getelementptr %struct.VFIOMmap, ptr %11, i64 0
  %size7 = getelementptr inbounds %struct.VFIOMmap, ptr %arrayidx6, i32 0, i32 3
  %12 = load i64, ptr %size7, align 16
  %13 = load ptr, ptr %region, align 8
  %size8 = getelementptr inbounds %struct.VFIORegion, ptr %13, i32 0, i32 3
  %14 = load i64, ptr %size8, align 8
  %cmp9 = icmp ne i64 %12, %14
  br i1 %cmp9, label %if.then, label %if.end

if.then:                                          ; preds = %lor.lhs.false4, %lor.lhs.false, %entry
  br label %return

if.end:                                           ; preds = %lor.lhs.false4
  %15 = load ptr, ptr %pdev.addr, align 8
  %io_regions = getelementptr inbounds %struct.PCIDevice, ptr %15, i32 0, i32 11
  %16 = load i32, ptr %bar.addr, align 4
  %idxprom10 = sext i32 %16 to i64
  %arrayidx11 = getelementptr [7 x %struct.PCIIORegion], ptr %io_regions, i64 0, i64 %idxprom10
  store ptr %arrayidx11, ptr %r, align 8
  %17 = load ptr, ptr %r, align 8
  %addr = getelementptr inbounds %struct.PCIIORegion, ptr %17, i32 0, i32 0
  %18 = load i64, ptr %addr, align 8
  store i64 %18, ptr %bar_addr, align 8
  %19 = load ptr, ptr %vdev, align 8
  %bars12 = getelementptr inbounds %struct.VFIOPCIDevice, ptr %19, i32 0, i32 14
  %20 = load i32, ptr %bar.addr, align 4
  %idxprom13 = sext i32 %20 to i64
  %arrayidx14 = getelementptr [6 x %struct.VFIOBAR], ptr %bars12, i64 0, i64 %idxprom13
  %mr = getelementptr inbounds %struct.VFIOBAR, ptr %arrayidx14, i32 0, i32 1
  %21 = load ptr, ptr %mr, align 8
  store ptr %21, ptr %base_mr, align 8
  %22 = load ptr, ptr %region, align 8
  %mem = getelementptr inbounds %struct.VFIORegion, ptr %22, i32 0, i32 2
  %23 = load ptr, ptr %mem, align 8
  store ptr %23, ptr %region_mr, align 8
  %24 = load ptr, ptr %region, align 8
  %mmaps15 = getelementptr inbounds %struct.VFIORegion, ptr %24, i32 0, i32 6
  %25 = load ptr, ptr %mmaps15, align 8
  %arrayidx16 = getelementptr %struct.VFIOMmap, ptr %25, i64 0
  %mem17 = getelementptr inbounds %struct.VFIOMmap, ptr %arrayidx16, i32 0, i32 0
  store ptr %mem17, ptr %mmap_mr, align 8
  %26 = load i64, ptr %bar_addr, align 8
  %cmp18 = icmp ne i64 %26, -1
  br i1 %cmp18, label %land.lhs.true, label %if.end23

land.lhs.true:                                    ; preds = %if.end
  %27 = load i64, ptr %bar_addr, align 8
  %call19 = call i64 @qemu_real_host_page_mask()
  %not = xor i64 %call19, -1
  %and = and i64 %27, %not
  %tobool20 = icmp ne i64 %and, 0
  br i1 %tobool20, label %if.end23, label %if.then21

if.then21:                                        ; preds = %land.lhs.true
  %call22 = call i64 @qemu_real_host_page_size()
  store i64 %call22, ptr %size, align 8
  br label %if.end23

if.end23:                                         ; preds = %if.then21, %land.lhs.true, %if.end
  call void @memory_region_transaction_begin()
  %28 = load ptr, ptr %vdev, align 8
  %bars24 = getelementptr inbounds %struct.VFIOPCIDevice, ptr %28, i32 0, i32 14
  %29 = load i32, ptr %bar.addr, align 4
  %idxprom25 = sext i32 %29 to i64
  %arrayidx26 = getelementptr [6 x %struct.VFIOBAR], ptr %bars24, i64 0, i64 %idxprom25
  %size27 = getelementptr inbounds %struct.VFIOBAR, ptr %arrayidx26, i32 0, i32 2
  %30 = load i64, ptr %size27, align 8
  %31 = load i64, ptr %size, align 8
  %cmp28 = icmp ult i64 %30, %31
  br i1 %cmp28, label %if.then29, label %if.end30

if.then29:                                        ; preds = %if.end23
  %32 = load ptr, ptr %base_mr, align 8
  %33 = load i64, ptr %size, align 8
  call void @memory_region_set_size(ptr noundef %32, i64 noundef %33)
  br label %if.end30

if.end30:                                         ; preds = %if.then29, %if.end23
  %34 = load ptr, ptr %region_mr, align 8
  %35 = load i64, ptr %size, align 8
  call void @memory_region_set_size(ptr noundef %34, i64 noundef %35)
  %36 = load ptr, ptr %mmap_mr, align 8
  %37 = load i64, ptr %size, align 8
  call void @memory_region_set_size(ptr noundef %36, i64 noundef %37)
  %38 = load i64, ptr %size, align 8
  %39 = load ptr, ptr %vdev, align 8
  %bars31 = getelementptr inbounds %struct.VFIOPCIDevice, ptr %39, i32 0, i32 14
  %40 = load i32, ptr %bar.addr, align 4
  %idxprom32 = sext i32 %40 to i64
  %arrayidx33 = getelementptr [6 x %struct.VFIOBAR], ptr %bars31, i64 0, i64 %idxprom32
  %size34 = getelementptr inbounds %struct.VFIOBAR, ptr %arrayidx33, i32 0, i32 2
  %41 = load i64, ptr %size34, align 8
  %cmp35 = icmp ne i64 %38, %41
  br i1 %cmp35, label %land.lhs.true36, label %if.end40

land.lhs.true36:                                  ; preds = %if.end30
  %42 = load ptr, ptr %base_mr, align 8
  %call37 = call zeroext i1 @memory_region_is_mapped(ptr noundef %42)
  br i1 %call37, label %if.then38, label %if.end40

if.then38:                                        ; preds = %land.lhs.true36
  %43 = load ptr, ptr %r, align 8
  %address_space = getelementptr inbounds %struct.PCIIORegion, ptr %43, i32 0, i32 4
  %44 = load ptr, ptr %address_space, align 8
  %45 = load ptr, ptr %base_mr, align 8
  call void @memory_region_del_subregion(ptr noundef %44, ptr noundef %45)
  %46 = load ptr, ptr %r, align 8
  %address_space39 = getelementptr inbounds %struct.PCIIORegion, ptr %46, i32 0, i32 4
  %47 = load ptr, ptr %address_space39, align 8
  %48 = load i64, ptr %bar_addr, align 8
  %49 = load ptr, ptr %base_mr, align 8
  call void @memory_region_add_subregion_overlap(ptr noundef %47, i64 noundef %48, ptr noundef %49, i32 noundef 0)
  br label %if.end40

if.end40:                                         ; preds = %if.then38, %land.lhs.true36, %if.end30
  call void @memory_region_transaction_commit()
  br label %return

return:                                           ; preds = %if.end40, %if.then
  ret void
}