; Function Attrs: nounwind sspstrong uwtable
define internal fastcc void @vfio_sub_page_bar_update_mapping(ptr noundef %pdev, i32 noundef range(i32 -2147483648, 6) %bar) unnamed_addr #0 {
entry:
  %call.i = tail call ptr @object_dynamic_cast_assert(ptr noundef %pdev, ptr noundef nonnull @.str.22, ptr noundef nonnull @.str.23, i32 noundef 120, ptr noundef nonnull @__func__.VFIO_PCI) #23
  %bars = getelementptr inbounds nuw i8, ptr %call.i, i64 2888
  %idxprom = sext i32 %bar to i64
  %arrayidx = getelementptr [6 x %struct.VFIOBAR], ptr %bars, i64 0, i64 %idxprom
  %size2 = getelementptr inbounds nuw i8, ptr %arrayidx, i64 24
  %0 = load i64, ptr %size2, align 8
  %nr_mmaps = getelementptr inbounds nuw i8, ptr %arrayidx, i64 36
  %1 = load i32, ptr %nr_mmaps, align 4
  %cmp.not = icmp eq i32 %1, 1
  br i1 %cmp.not, label %lor.lhs.false, label %return

lor.lhs.false:                                    ; preds = %entry
  %mmaps = getelementptr inbounds nuw i8, ptr %arrayidx, i64 40
  %2 = load ptr, ptr %mmaps, align 8
  %mmap = getelementptr inbounds nuw i8, ptr %2, i64 272
  %3 = load ptr, ptr %mmap, align 16
  %tobool.not = icmp eq ptr %3, null
  br i1 %tobool.not, label %return, label %lor.lhs.false4

lor.lhs.false4:                                   ; preds = %lor.lhs.false
  %size7 = getelementptr inbounds nuw i8, ptr %2, i64 288
  %4 = load i64, ptr %size7, align 16
  %cmp9.not = icmp eq i64 %4, %0
  br i1 %cmp9.not, label %if.end, label %return

if.end:                                           ; preds = %lor.lhs.false4
  %io_regions = getelementptr inbounds nuw i8, ptr %pdev, i64 296
  %arrayidx11 = getelementptr [7 x %struct.PCIIORegion], ptr %io_regions, i64 0, i64 %idxprom
  %5 = load i64, ptr %arrayidx11, align 8
  %mr = getelementptr inbounds nuw i8, ptr %arrayidx, i64 56
  %6 = load ptr, ptr %mr, align 8
  %mem = getelementptr inbounds nuw i8, ptr %arrayidx, i64 16
  %7 = load ptr, ptr %mem, align 8
  %cmp18.not = icmp eq i64 %5, -1
  br i1 %cmp18.not, label %if.end23, label %land.lhs.true

land.lhs.true:                                    ; preds = %if.end
  %call.i.i = tail call i32 @getpagesize() #24
  %conv.i.i = sext i32 %call.i.i to i64
  %not = add nsw i64 %conv.i.i, -1
  %and = and i64 %not, %5
  %tobool20.not = icmp eq i64 %and, 0
  %spec.select = select i1 %tobool20.not, i64 %conv.i.i, i64 %0
  br label %if.end23

if.end23:                                         ; preds = %land.lhs.true, %if.end
  %size.0 = phi i64 [ %0, %if.end ], [ %spec.select, %land.lhs.true ]
  tail call void @memory_region_transaction_begin() #23
  %size27 = getelementptr inbounds nuw i8, ptr %arrayidx, i64 64
  %8 = load i64, ptr %size27, align 8
  %cmp28 = icmp ult i64 %8, %size.0
  br i1 %cmp28, label %if.then29, label %if.end30

if.then29:                                        ; preds = %if.end23
  tail call void @memory_region_set_size(ptr noundef %6, i64 noundef %size.0) #23
  br label %if.end30

if.end30:                                         ; preds = %if.then29, %if.end23
  tail call void @memory_region_set_size(ptr noundef %7, i64 noundef %size.0) #23
  tail call void @memory_region_set_size(ptr noundef nonnull %2, i64 noundef %size.0) #23
  %9 = load i64, ptr %size27, align 8
  %cmp35.not = icmp eq i64 %size.0, %9
  br i1 %cmp35.not, label %if.end40, label %land.lhs.true36

land.lhs.true36:                                  ; preds = %if.end30
  %call37 = tail call zeroext i1 @memory_region_is_mapped(ptr noundef %6) #23
  br i1 %call37, label %if.then38, label %if.end40

if.then38:                                        ; preds = %land.lhs.true36
  %address_space = getelementptr inbounds nuw i8, ptr %arrayidx11, i64 32
  %10 = load ptr, ptr %address_space, align 8
  tail call void @memory_region_del_subregion(ptr noundef %10, ptr noundef %6) #23
  %11 = load ptr, ptr %address_space, align 8
  tail call void @memory_region_add_subregion_overlap(ptr noundef %11, i64 noundef %5, ptr noundef %6, i32 noundef 0) #23
  br label %if.end40

if.end40:                                         ; preds = %if.then38, %land.lhs.true36, %if.end30
  tail call void @memory_region_transaction_commit() #23
  br label %return

return:                                           ; preds = %entry, %lor.lhs.false, %lor.lhs.false4, %if.end40
  ret void
}